target datalayout = "e-m:e-p270:32:32-p271:32:32-p272:64:64-i64:64-i128:128-f80:128-n8:16:32:64-S128"
target triple = "x86_64-pc-linux-gnu"

%"class.clang::SourceLocation" = type { i32 }
%"class.clang::Qualifiers" = type { i64 }
%"class.clang::SemaBase::SemaDiagnosticBuilder" = type { ptr, %"class.clang::SourceLocation", i32, ptr, i8, [7 x i8], %"class.std::optional", %"class.std::optional.2" }
%"class.std::optional" = type { %"struct.std::_Optional_base" }
%"struct.std::_Optional_base" = type { %"struct.std::_Optional_payload" }
%"struct.std::_Optional_payload" = type { %"struct.std::_Optional_payload.base", [7 x i8] }
%"struct.std::_Optional_payload.base" = type { %"struct.std::_Optional_payload_base.base" }
%"struct.std::_Optional_payload_base.base" = type { %"union.std::_Optional_payload_base<clang::SemaBase::ImmediateDiagBuilder>::_Storage", i8 }
%"union.std::_Optional_payload_base<clang::SemaBase::ImmediateDiagBuilder>::_Storage" = type { %"class.clang::SemaBase::ImmediateDiagBuilder" }
%"class.clang::SemaBase::ImmediateDiagBuilder" = type <{ %"class.clang::DiagnosticBuilder.base", [6 x i8], ptr, i32, [4 x i8] }>
%"class.clang::DiagnosticBuilder.base" = type <{ %"class.clang::StreamingDiagnostic", ptr, i8, i8 }>
%"class.clang::StreamingDiagnostic" = type { ptr, ptr }
%"class.std::optional.2" = type { %"struct.std::_Optional_base.3" }
%"struct.std::_Optional_base.3" = type { %"struct.std::_Optional_payload.5" }
%"struct.std::_Optional_payload.5" = type { %"struct.std::_Optional_payload_base.base.7", [3 x i8] }
%"struct.std::_Optional_payload_base.base.7" = type <{ %"union.std::_Optional_payload_base<unsigned int>::_Storage", i8 }>
%"union.std::_Optional_payload_base<unsigned int>::_Storage" = type { i32 }
%"class.llvm::StringRef" = type { ptr, i64 }
%"class.llvm::ArrayRef.1157" = type { ptr, i64 }
%"class.llvm::function_ref" = type { ptr, i64 }
%"struct.clang::FunctionProtoType::ExtProtoInfo" = type { %"class.clang::FunctionType::ExtInfo", i16, %"class.clang::Qualifiers", i32, %"struct.clang::FunctionProtoType::ExceptionSpecInfo", ptr, %"class.clang::SourceLocation", %"class.clang::FunctionEffectsRef" }
%"class.clang::FunctionType::ExtInfo" = type { i16 }
%"struct.clang::FunctionProtoType::ExceptionSpecInfo" = type { i32, %"class.llvm::ArrayRef.1157", ptr, ptr, ptr }
%"class.clang::FunctionEffectsRef" = type { %"class.llvm::ArrayRef.1158", %"class.llvm::ArrayRef.1159" }
%"class.llvm::ArrayRef.1158" = type { ptr, i64 }
%"class.llvm::ArrayRef.1159" = type { ptr, i64 }
%class.anon.1692 = type { ptr, ptr, ptr, ptr, ptr }
%"class.clang::FunctionType::ExtParameterInfo" = type { i8 }

; Function Attrs: mustprogress nounwind uwtable
define linkonce_odr hidden noundef i32 @_ZNK5clang12FunctionType16ExtParameterInfo6getABIEv(ptr noundef nonnull align 1 dereferenceable(1) %0) #0 comdat align 2 {
  %2 = alloca ptr, align 8
  store ptr %0, ptr %2, align 8
  %3 = load ptr, ptr %2, align 8
  %4 = getelementptr inbounds nuw %"class.clang::FunctionType::ExtParameterInfo", ptr %3, i32 0, i32 0
  %5 = load i8, ptr %4, align 1
  %6 = zext i8 %5 to i32
  %7 = and i32 %6, 15
  ret i32 %7
}

; Function Attrs: mustprogress nounwind uwtable
define linkonce_odr hidden i32 @_ZNK4llvm12function_refIFN5clang14SourceLocationEjEEclEj(ptr noundef nonnull align 8 dereferenceable(16) %0, i32 noundef %1) #0 comdat align 2 {
  %3 = alloca %"class.clang::SourceLocation", align 4
  %4 = alloca ptr, align 8
  %5 = alloca i32, align 4
  store ptr %0, ptr %4, align 8
  store i32 %1, ptr %5, align 4
  %6 = load ptr, ptr %4, align 8
  %7 = getelementptr inbounds nuw %"class.llvm::function_ref", ptr %6, i32 0, i32 0
  %8 = load ptr, ptr %7, align 8
  %9 = getelementptr inbounds nuw %"class.llvm::function_ref", ptr %6, i32 0, i32 1
  %10 = load i64, ptr %9, align 8
  %11 = load i32, ptr %5, align 4
  %12 = call i32 %8(i64 noundef %10, i32 noundef %11)
  %13 = getelementptr inbounds nuw %"class.clang::SourceLocation", ptr %3, i32 0, i32 0
  store i32 %12, ptr %13, align 4
  %14 = getelementptr inbounds nuw %"class.clang::SourceLocation", ptr %3, i32 0, i32 0
  %15 = load i32, ptr %14, align 4
  ret i32 %15
}

; Function Attrs: mustprogress nounwind uwtable
define internal void @"_ZZL22checkExtParameterInfosRN5clang4SemaEN4llvm8ArrayRefINS_8QualTypeEEERKNS_17FunctionProtoType12ExtProtoInfoENS2_12function_refIFNS_14SourceLocationEjEEEENK3$_0clEjZL22checkExtParameterInfosS1_S5_S9_SD_E10RequiredCC"(ptr noundef nonnull align 8 dereferenceable(40) %0, i32 noundef %1, i32 noundef %2) #0 align 2 {
  %4 = alloca ptr, align 8
  %5 = alloca i32, align 4
  %6 = alloca i32, align 4
  %7 = alloca i8, align 1
  %8 = alloca %"class.clang::SemaBase::SemaDiagnosticBuilder", align 8
  %9 = alloca %"class.clang::SourceLocation", align 4
  %10 = alloca %"class.llvm::StringRef", align 8
  %11 = alloca i8, align 1
  store ptr %0, ptr %4, align 8
  store i32 %1, ptr %5, align 4
  store i32 %2, ptr %6, align 4
  %12 = load ptr, ptr %4, align 8
  %13 = load i32, ptr %6, align 4
  %14 = icmp eq i32 %13, 0
  br i1 %14, label %15, label %20

15:                                               ; preds = %3
  %16 = getelementptr inbounds nuw %class.anon.1692, ptr %12, i32 0, i32 0
  %17 = load ptr, ptr %16, align 8
  %18 = load i32, ptr %17, align 4
  %19 = icmp eq i32 %18, 14
  br label %32

20:                                               ; preds = %3
  %21 = getelementptr inbounds nuw %class.anon.1692, ptr %12, i32 0, i32 0
  %22 = load ptr, ptr %21, align 8
  %23 = load i32, ptr %22, align 4
  %24 = icmp eq i32 %23, 14
  br i1 %24, label %30, label %25

25:                                               ; preds = %20
  %26 = getelementptr inbounds nuw %class.anon.1692, ptr %12, i32 0, i32 0
  %27 = load ptr, ptr %26, align 8
  %28 = load i32, ptr %27, align 4
  %29 = icmp eq i32 %28, 15
  br label %30

30:                                               ; preds = %25, %20
  %31 = phi i1 [ true, %20 ], [ %29, %25 ]
  br label %32

32:                                               ; preds = %30, %15
  %33 = phi i1 [ %19, %15 ], [ %31, %30 ]
  %34 = zext i1 %33 to i8
  store i8 %34, ptr %7, align 1
  %35 = load i8, ptr %7, align 1
  %36 = trunc i8 %35 to i1
  br i1 %36, label %42, label %37

37:                                               ; preds = %32
  %38 = getelementptr inbounds nuw %class.anon.1692, ptr %12, i32 0, i32 1
  %39 = load ptr, ptr %38, align 8
  %40 = load i8, ptr %39, align 1
  %41 = trunc i8 %40 to i1
  br i1 %41, label %42, label %43

42:                                               ; preds = %37, %32
  br label %74

43:                                               ; preds = %37
  %44 = getelementptr inbounds nuw %class.anon.1692, ptr %12, i32 0, i32 2
  %45 = load ptr, ptr %44, align 8
  %46 = getelementptr inbounds i8, ptr %45, i64 8
  %47 = getelementptr inbounds nuw %class.anon.1692, ptr %12, i32 0, i32 3
  %48 = load ptr, ptr %47, align 8
  %49 = load i32, ptr %5, align 4
  %50 = call i32 @_ZNK4llvm12function_refIFN5clang14SourceLocationEjEEclEj(ptr noundef nonnull align 8 dereferenceable(16) %48, i32 noundef %49)
  %51 = getelementptr inbounds nuw %"class.clang::SourceLocation", ptr %9, i32 0, i32 0
  store i32 %50, ptr %51, align 4
  %52 = getelementptr inbounds nuw %"class.clang::SourceLocation", ptr %9, i32 0, i32 0
  %53 = load i32, ptr %52, align 4
  call void @_ZN5clang8SemaBase4DiagENS_14SourceLocationEjb(ptr dead_on_unwind writable sret(%"class.clang::SemaBase::SemaDiagnosticBuilder") align 8 %8, ptr noundef nonnull align 8 dereferenceable(8) %46, i32 %53, i32 noundef 4695, i1 noundef zeroext false)
  %54 = getelementptr inbounds nuw %class.anon.1692, ptr %12, i32 0, i32 4
  %55 = load ptr, ptr %54, align 8
  %56 = getelementptr inbounds nuw %"struct.clang::FunctionProtoType::ExtProtoInfo", ptr %55, i32 0, i32 5
  %57 = load ptr, ptr %56, align 8
  %58 = load i32, ptr %5, align 4
  %59 = zext i32 %58 to i64
  %60 = getelementptr inbounds %"class.clang::FunctionType::ExtParameterInfo", ptr %57, i64 %59
  %61 = call noundef i32 @_ZNK5clang12FunctionType16ExtParameterInfo6getABIEv(ptr noundef nonnull align 1 dereferenceable(1) %60)
  %62 = call { ptr, i64 } @_ZN5clang23getParameterABISpellingENS_12ParameterABIE(i32 noundef %61)
  %63 = getelementptr inbounds nuw { ptr, i64 }, ptr %10, i32 0, i32 0
  %64 = extractvalue { ptr, i64 } %62, 0
  store ptr %64, ptr %63, align 8
  %65 = getelementptr inbounds nuw { ptr, i64 }, ptr %10, i32 0, i32 1
  %66 = extractvalue { ptr, i64 } %62, 1
  store i64 %66, ptr %65, align 8
  %67 = call noundef nonnull align 8 dereferenceable(96) ptr @_ZNK5clang8SemaBase21SemaDiagnosticBuilderlsIN4llvm9StringRefEvEERKS1_OT_(ptr noundef nonnull align 8 dereferenceable(96) %8, ptr noundef nonnull align 8 dereferenceable(16) %10)
  %68 = load i32, ptr %6, align 4
  %69 = icmp eq i32 %68, 0
  %70 = zext i1 %69 to i8
  store i8 %70, ptr %11, align 1
  %71 = call noundef nonnull align 8 dereferenceable(96) ptr @_ZNK5clang8SemaBase21SemaDiagnosticBuilderlsIbvEERKS1_OT_(ptr noundef nonnull align 8 dereferenceable(96) %67, ptr noundef nonnull align 1 dereferenceable(1) %11)
  call void @_ZN5clang8SemaBase21SemaDiagnosticBuilderD1Ev(ptr noundef nonnull align 8 dereferenceable(96) %8) #15
  %72 = getelementptr inbounds nuw %class.anon.1692, ptr %12, i32 0, i32 1
  %73 = load ptr, ptr %72, align 8
  store i8 1, ptr %73, align 1
  br label %74

74:                                               ; preds = %43, %42
  ret void
}