; Function Attrs: mustprogress nounwind uwtable
define internal fastcc void @"_ZZL22checkExtParameterInfosRN5clang4SemaEN4llvm8ArrayRefINS_8QualTypeEEERKNS_17FunctionProtoType12ExtProtoInfoENS2_12function_refIFNS_14SourceLocationEjEEEENK3$_0clEjZL22checkExtParameterInfosS1_S5_S9_SD_E10RequiredCC"(ptr noundef nonnull readonly align 8 captures(none) dereferenceable(40) %0, i32 noundef %1, i32 noundef range(i32 0, 2) %2) unnamed_addr #0 align 2 {
  %4 = alloca %"class.clang::SemaBase::SemaDiagnosticBuilder", align 8
  %5 = alloca %"class.llvm::StringRef", align 8
  %6 = alloca i8, align 1
  %7 = icmp eq i32 %2, 0
  %8 = load ptr, ptr %0, align 8
  %9 = load i32, ptr %8, align 4
  br i1 %7, label %10, label %12

10:                                               ; preds = %3
  %11 = icmp eq i32 %9, 14
  br i1 %11, label %47, label %14

12:                                               ; preds = %3
  %13 = and i32 %9, -2
  %switch = icmp eq i32 %13, 14
  br i1 %switch, label %47, label %14

14:                                               ; preds = %12, %10
  %15 = getelementptr inbounds nuw i8, ptr %0, i64 8
  %16 = load ptr, ptr %15, align 8
  %17 = load i8, ptr %16, align 1
  %18 = trunc i8 %17 to i1
  br i1 %18, label %47, label %19

19:                                               ; preds = %14
  %20 = getelementptr inbounds nuw i8, ptr %0, i64 16
  %21 = load ptr, ptr %20, align 8
  %22 = getelementptr inbounds nuw i8, ptr %21, i64 8
  %23 = getelementptr inbounds nuw i8, ptr %0, i64 24
  %24 = load ptr, ptr %23, align 8
  %25 = load ptr, ptr %24, align 8
  %26 = getelementptr inbounds nuw i8, ptr %24, i64 8
  %27 = load i64, ptr %26, align 8
  %28 = tail call i32 %25(i64 noundef %27, i32 noundef %1) #21
  call void @_ZN5clang8SemaBase4DiagENS_14SourceLocationEjb(ptr dead_on_unwind nonnull writable sret(%"class.clang::SemaBase::SemaDiagnosticBuilder") align 8 %4, ptr noundef nonnull align 8 dereferenceable(8) %22, i32 %28, i32 noundef 4695, i1 noundef zeroext false) #21
  %29 = getelementptr inbounds nuw i8, ptr %0, i64 32
  %30 = load ptr, ptr %29, align 8
  %31 = getelementptr inbounds nuw i8, ptr %30, i64 72
  %32 = load ptr, ptr %31, align 8
  %33 = zext i32 %1 to i64
  %34 = getelementptr inbounds nuw %"class.clang::FunctionType::ExtParameterInfo", ptr %32, i64 %33
  %35 = load i8, ptr %34, align 1
  %36 = and i8 %35, 15
  %37 = zext nneg i8 %36 to i32
  %38 = call { ptr, i64 } @_ZN5clang23getParameterABISpellingENS_12ParameterABIE(i32 noundef %37) #21
  %39 = extractvalue { ptr, i64 } %38, 0
  store ptr %39, ptr %5, align 8
  %40 = getelementptr inbounds nuw i8, ptr %5, i64 8
  %41 = extractvalue { ptr, i64 } %38, 1
  store i64 %41, ptr %40, align 8
  %42 = call noundef nonnull align 8 dereferenceable(96) ptr @_ZNK5clang8SemaBase21SemaDiagnosticBuilderlsIN4llvm9StringRefEvEERKS1_OT_(ptr noundef nonnull align 8 dereferenceable(96) %4, ptr noundef nonnull align 8 dereferenceable(16) %5)
  %43 = trunc nuw nsw i32 %2 to i8
  %44 = xor i8 %43, 1
  store i8 %44, ptr %6, align 1
  %45 = call noundef nonnull align 8 dereferenceable(96) ptr @_ZNK5clang8SemaBase21SemaDiagnosticBuilderlsIbvEERKS1_OT_(ptr noundef nonnull align 8 dereferenceable(96) %42, ptr noundef nonnull align 1 dereferenceable(1) %6)
  call void @_ZN5clang8SemaBase21SemaDiagnosticBuilderD1Ev(ptr noundef nonnull align 8 dereferenceable(96) %4) #21
  %46 = load ptr, ptr %15, align 8
  store i8 1, ptr %46, align 1
  br label %47

47:                                               ; preds = %12, %10, %14, %19
  ret void
}